; ModuleID = '21/1186.c'
source_filename = "21/1186.c"
target datalayout = "e-m:e-p270:32:32-p271:32:32-p272:64:64-i64:64-f80:128-n8:16:32:64-S128"
target triple = "x86_64-pc-linux-gnu"

@.str = private unnamed_addr constant [3 x i8] c"%d\00", align 1
@.str.1 = private unnamed_addr constant [4 x i8] c",%d\00", align 1

; Function Attrs: noinline nounwind uwtable
define dso_local float @juedui(float %0) #0 {
  %2 = alloca float, align 4
  %3 = alloca float, align 4
  store float %0, float* %3, align 4
  %4 = load float, float* %3, align 4
  %5 = fcmp oge float %4, 0.000000e+00
  br i1 %5, label %6, label %8

6:                                                ; preds = %1
  %7 = load float, float* %3, align 4
  store float %7, float* %2, align 4
  br label %11

8:                                                ; preds = %1
  %9 = load float, float* %3, align 4
  %10 = fmul float -1.000000e+00, %9
  store float %10, float* %2, align 4
  br label %11

11:                                               ; preds = %8, %6
  %12 = load float, float* %2, align 4
  ret float %12
}

; Function Attrs: noinline nounwind uwtable
define dso_local i32 @main() #0 {
  %1 = alloca i32, align 4
  %2 = alloca [100 x i32], align 16
  %3 = alloca i32, align 4
  %4 = alloca i32, align 4
  %5 = alloca float, align 4
  %6 = alloca float, align 4
  %7 = alloca i32, align 4
  store i32 0, i32* %1, align 4
  %8 = call i32 (i8*, ...) @__isoc99_scanf(i8* getelementptr inbounds ([3 x i8], [3 x i8]* @.str, i64 0, i64 0), i32* %3)
  store i32 1, i32* %4, align 4
  br label %9

9:                                                ; preds = %19, %0
  %10 = load i32, i32* %4, align 4
  %11 = load i32, i32* %3, align 4
  %12 = icmp sle i32 %10, %11
  br i1 %12, label %13, label %22

13:                                               ; preds = %9
  %14 = load i32, i32* %4, align 4
  %15 = sub nsw i32 %14, 1
  %16 = sext i32 %15 to i64
  %17 = getelementptr inbounds [100 x i32], [100 x i32]* %2, i64 0, i64 %16
  %18 = call i32 (i8*, ...) @__isoc99_scanf(i8* getelementptr inbounds ([3 x i8], [3 x i8]* @.str, i64 0, i64 0), i32* %17)
  br label %19

19:                                               ; preds = %13
  %20 = load i32, i32* %4, align 4
  %21 = add nsw i32 %20, 1
  store i32 %21, i32* %4, align 4
  br label %9

22:                                               ; preds = %9
  store float 0.000000e+00, float* %5, align 4
  store i32 1, i32* %4, align 4
  br label %23

23:                                               ; preds = %36, %22
  %24 = load i32, i32* %4, align 4
  %25 = load i32, i32* %3, align 4
  %26 = icmp sle i32 %24, %25
  br i1 %26, label %27, label %39

27:                                               ; preds = %23
  %28 = load i32, i32* %4, align 4
  %29 = sub nsw i32 %28, 1
  %30 = sext i32 %29 to i64
  %31 = getelementptr inbounds [100 x i32], [100 x i32]* %2, i64 0, i64 %30
  %32 = load i32, i32* %31, align 4
  %33 = sitofp i32 %32 to float
  %34 = load float, float* %5, align 4
  %35 = fadd float %34, %33
  store float %35, float* %5, align 4
  br label %36

36:                                               ; preds = %27
  %37 = load i32, i32* %4, align 4
  %38 = add nsw i32 %37, 1
  store i32 %38, i32* %4, align 4
  br label %23

39:                                               ; preds = %23
  %40 = load i32, i32* %3, align 4
  %41 = sitofp i32 %40 to float
  %42 = load float, float* %5, align 4
  %43 = fdiv float %42, %41
  store float %43, float* %5, align 4
  %44 = getelementptr inbounds [100 x i32], [100 x i32]* %2, i64 0, i64 0
  %45 = load i32, i32* %44, align 16
  %46 = sitofp i32 %45 to float
  %47 = load float, float* %5, align 4
  %48 = fsub float %46, %47
  store float %48, float* %6, align 4
  store i32 1, i32* %4, align 4
  br label %49

49:                                               ; preds = %77, %39
  %50 = load i32, i32* %4, align 4
  %51 = load i32, i32* %3, align 4
  %52 = icmp sle i32 %50, %51
  br i1 %52, label %53, label %80

53:                                               ; preds = %49
  %54 = load float, float* %6, align 4
  %55 = load i32, i32* %4, align 4
  %56 = sub nsw i32 %55, 1
  %57 = sext i32 %56 to i64
  %58 = getelementptr inbounds [100 x i32], [100 x i32]* %2, i64 0, i64 %57
  %59 = load i32, i32* %58, align 4
  %60 = sitofp i32 %59 to float
  %61 = load float, float* %5, align 4
  %62 = fsub float %60, %61
  %63 = call float @juedui(float %62)
  %64 = fcmp olt float %54, %63
  br i1 %64, label %65, label %75

65:                                               ; preds = %53
  %66 = load i32, i32* %4, align 4
  %67 = sub nsw i32 %66, 1
  %68 = sext i32 %67 to i64
  %69 = getelementptr inbounds [100 x i32], [100 x i32]* %2, i64 0, i64 %68
  %70 = load i32, i32* %69, align 4
  %71 = sitofp i32 %70 to float
  %72 = load float, float* %5, align 4
  %73 = fsub float %71, %72
  %74 = call float @juedui(float %73)
  store float %74, float* %6, align 4
  br label %76

75:                                               ; preds = %53
  br label %76

76:                                               ; preds = %75, %65
  br label %77

77:                                               ; preds = %76
  %78 = load i32, i32* %4, align 4
  %79 = add nsw i32 %78, 1
  store i32 %79, i32* %4, align 4
  br label %49

80:                                               ; preds = %49
  store i32 0, i32* %7, align 4
  store i32 1, i32* %4, align 4
  br label %81

81:                                               ; preds = %119, %80
  %82 = load i32, i32* %4, align 4
  %83 = load i32, i32* %3, align 4
  %84 = icmp sle i32 %82, %83
  br i1 %84, label %85, label %122

85:                                               ; preds = %81
  %86 = load i32, i32* %4, align 4
  %87 = sub nsw i32 %86, 1
  %88 = sext i32 %87 to i64
  %89 = getelementptr inbounds [100 x i32], [100 x i32]* %2, i64 0, i64 %88
  %90 = load i32, i32* %89, align 4
  %91 = sitofp i32 %90 to float
  %92 = load float, float* %5, align 4
  %93 = fsub float %91, %92
  %94 = call float @juedui(float %93)
  %95 = load float, float* %6, align 4
  %96 = fcmp oeq float %94, %95
  br i1 %96, label %97, label %117

97:                                               ; preds = %85
  %98 = load i32, i32* %7, align 4
  %99 = icmp eq i32 %98, 0
  br i1 %99, label %100, label %107

100:                                              ; preds = %97
  %101 = load i32, i32* %4, align 4
  %102 = sub nsw i32 %101, 1
  %103 = sext i32 %102 to i64
  %104 = getelementptr inbounds [100 x i32], [100 x i32]* %2, i64 0, i64 %103
  %105 = load i32, i32* %104, align 4
  %106 = call i32 (i8*, ...) @printf(i8* getelementptr inbounds ([3 x i8], [3 x i8]* @.str, i64 0, i64 0), i32 %105)
  br label %114

107:                                              ; preds = %97
  %108 = load i32, i32* %4, align 4
  %109 = sub nsw i32 %108, 1
  %110 = sext i32 %109 to i64
  %111 = getelementptr inbounds [100 x i32], [100 x i32]* %2, i64 0, i64 %110
  %112 = load i32, i32* %111, align 4
  %113 = call i32 (i8*, ...) @printf(i8* getelementptr inbounds ([4 x i8], [4 x i8]* @.str.1, i64 0, i64 0), i32 %112)
  br label %114

114:                                              ; preds = %107, %100
  %115 = load i32, i32* %7, align 4
  %116 = add nsw i32 %115, 1
  store i32 %116, i32* %7, align 4
  br label %118

117:                                              ; preds = %85
  br label %118

118:                                              ; preds = %117, %114
  br label %119

119:                                              ; preds = %118
  %120 = load i32, i32* %4, align 4
  %121 = add nsw i32 %120, 1
  store i32 %121, i32* %4, align 4
  br label %81

122:                                              ; preds = %81
  ret i32 0
}

declare dso_local i32 @__isoc99_scanf(i8*, ...) #1

declare dso_local i32 @printf(i8*, ...) #1


!llvm.module.flags = !{!0}
!llvm.ident = !{!1}

!0 = !{i32 1, !"wchar_size", i32 4}
!1 = !{!"clang version 10.0.0-4ubuntu1 "}
